target datalayout = "e-m:e-p270:32:32-p271:32:32-p272:64:64-i64:64-i128:128-f80:128-n8:16:32:64-S128"
target triple = "x86_64-pc-linux-gnu"

%class.b3LauncherCL = type { ptr, ptr, ptr, i32, [4 x i8], %class.b3AlignedObjectArray, i32, i8, ptr, %class.b3AlignedObjectArray.0 }
%class.b3AlignedObjectArray = type <{ [4 x i8], i32, i32, [4 x i8], ptr, i8, [7 x i8] }>
%class.b3AlignedObjectArray.0 = type <{ [4 x i8], i32, i32, [4 x i8], ptr, i8, [7 x i8] }>
%struct.b3KernelArgData = type { i32, i32, i32, i32, %union.anon }
%union.anon = type { ptr, [8 x i8] }
%struct.b3BufferInfoCL = type <{ ptr, i8, [7 x i8] }>

@__clewGetMemObjectInfo = external global ptr, align 8
@__clewSetKernelArg = external global ptr, align 8

; Function Attrs: mustprogress uwtable
define dso_local void @_ZN12b3LauncherCL10setBuffersEP14b3BufferInfoCLi(ptr noundef nonnull align 8 dereferenceable(112) %0, ptr noundef %1, i32 noundef %2) #0 align 2 {
  %4 = alloca ptr, align 8
  %5 = alloca ptr, align 8
  %6 = alloca i32, align 4
  %7 = alloca i32, align 4
  %8 = alloca %struct.b3KernelArgData, align 16
  %9 = alloca i32, align 4
  %10 = alloca i64, align 8
  %11 = alloca i64, align 8
  %12 = alloca i64, align 8
  %13 = alloca i32, align 4
  %14 = alloca i32, align 4
  store ptr %0, ptr %4, align 8, !tbaa !4
  store ptr %1, ptr %5, align 8, !tbaa !60
  store i32 %2, ptr %6, align 4, !tbaa !34
  %15 = load ptr, ptr %4, align 8
  call void @llvm.lifetime.start.p0(i64 4, ptr %7) #10
  store i32 0, ptr %7, align 4, !tbaa !34
  br label %16

16:                                               ; preds = %71, %3
  %17 = load i32, ptr %7, align 4, !tbaa !34
  %18 = load i32, ptr %6, align 4, !tbaa !34
  %19 = icmp slt i32 %17, %18
  br i1 %19, label %21, label %20

20:                                               ; preds = %16
  call void @llvm.lifetime.end.p0(i64 4, ptr %7) #10
  br label %74

21:                                               ; preds = %16
  %22 = getelementptr inbounds nuw %class.b3LauncherCL, ptr %15, i32 0, i32 7
  %23 = load i8, ptr %22, align 4, !tbaa !29, !range !32, !noundef !33
  %24 = trunc i8 %23 to i1
  br i1 %24, label %25, label %58

25:                                               ; preds = %21
  call void @llvm.lifetime.start.p0(i64 32, ptr %8) #10
  %26 = getelementptr inbounds nuw %class.b3LauncherCL, ptr %15, i32 0, i32 3
  %27 = load i32, ptr %26, align 8, !tbaa !28
  %28 = getelementptr inbounds nuw %struct.b3KernelArgData, ptr %8, i32 0, i32 1
  store i32 %27, ptr %28, align 4, !tbaa !48
  %29 = getelementptr inbounds nuw %struct.b3KernelArgData, ptr %8, i32 0, i32 0
  store i32 1, ptr %29, align 16, !tbaa !50
  %30 = load ptr, ptr %5, align 8, !tbaa !60
  %31 = load i32, ptr %7, align 4, !tbaa !34
  %32 = sext i32 %31 to i64
  %33 = getelementptr inbounds %struct.b3BufferInfoCL, ptr %30, i64 %32
  %34 = getelementptr inbounds nuw %struct.b3BufferInfoCL, ptr %33, i32 0, i32 0
  %35 = load ptr, ptr %34, align 8, !tbaa !62
  %36 = getelementptr inbounds nuw %struct.b3KernelArgData, ptr %8, i32 0, i32 4
  store ptr %35, ptr %36, align 16, !tbaa !51
  call void @llvm.lifetime.start.p0(i64 4, ptr %9) #10
  store i32 4354, ptr %9, align 4, !tbaa !34
  call void @llvm.lifetime.start.p0(i64 8, ptr %10) #10
  call void @llvm.lifetime.start.p0(i64 8, ptr %11) #10
  store i64 8, ptr %11, align 8, !tbaa !52
  call void @llvm.lifetime.start.p0(i64 8, ptr %12) #10
  call void @llvm.lifetime.start.p0(i64 4, ptr %13) #10
  %37 = load ptr, ptr @__clewGetMemObjectInfo, align 8, !tbaa !54
  %38 = getelementptr inbounds nuw %struct.b3KernelArgData, ptr %8, i32 0, i32 4
  %39 = load ptr, ptr %38, align 16, !tbaa !51
  %40 = load i32, ptr %9, align 4, !tbaa !34
  %41 = load i64, ptr %11, align 8, !tbaa !52
  %42 = call i32 %37(ptr noundef %39, i32 noundef %40, i64 noundef %41, ptr noundef %10, ptr noundef %12)
  store i32 %42, ptr %13, align 4, !tbaa !34
  %43 = load i64, ptr %10, align 8, !tbaa !52
  %44 = trunc i64 %43 to i32
  %45 = getelementptr inbounds nuw %struct.b3KernelArgData, ptr %8, i32 0, i32 2
  store i32 %44, ptr %45, align 8, !tbaa !55
  %46 = getelementptr inbounds nuw %class.b3LauncherCL, ptr %15, i32 0, i32 5
  call void @_ZN20b3AlignedObjectArrayI15b3KernelArgDataE9push_backERKS0_(ptr noundef nonnull align 8 dereferenceable(25) %46, ptr noundef nonnull align 16 dereferenceable(32) %8)
  %47 = getelementptr inbounds nuw %class.b3LauncherCL, ptr %15, i32 0, i32 6
  %48 = load i32, ptr %47, align 8, !tbaa !35
  %49 = sext i32 %48 to i64
  %50 = add i64 %49, 32
  %51 = trunc i64 %50 to i32
  store i32 %51, ptr %47, align 8, !tbaa !35
  %52 = load i64, ptr %10, align 8, !tbaa !52
  %53 = getelementptr inbounds nuw %class.b3LauncherCL, ptr %15, i32 0, i32 6
  %54 = load i32, ptr %53, align 8, !tbaa !35
  %55 = sext i32 %54 to i64
  %56 = add i64 %55, %52
  %57 = trunc i64 %56 to i32
  store i32 %57, ptr %53, align 8, !tbaa !35
  call void @llvm.lifetime.end.p0(i64 4, ptr %13) #10
  call void @llvm.lifetime.end.p0(i64 8, ptr %12) #10
  call void @llvm.lifetime.end.p0(i64 8, ptr %11) #10
  call void @llvm.lifetime.end.p0(i64 8, ptr %10) #10
  call void @llvm.lifetime.end.p0(i64 4, ptr %9) #10
  call void @llvm.lifetime.end.p0(i64 32, ptr %8) #10
  br label %58

58:                                               ; preds = %25, %21
  call void @llvm.lifetime.start.p0(i64 4, ptr %14) #10
  %59 = load ptr, ptr @__clewSetKernelArg, align 8, !tbaa !54
  %60 = getelementptr inbounds nuw %class.b3LauncherCL, ptr %15, i32 0, i32 2
  %61 = load ptr, ptr %60, align 8, !tbaa !27
  %62 = getelementptr inbounds nuw %class.b3LauncherCL, ptr %15, i32 0, i32 3
  %63 = load i32, ptr %62, align 8, !tbaa !28
  %64 = add nsw i32 %63, 1
  store i32 %64, ptr %62, align 8, !tbaa !28
  %65 = load ptr, ptr %5, align 8, !tbaa !60
  %66 = load i32, ptr %7, align 4, !tbaa !34
  %67 = sext i32 %66 to i64
  %68 = getelementptr inbounds %struct.b3BufferInfoCL, ptr %65, i64 %67
  %69 = getelementptr inbounds nuw %struct.b3BufferInfoCL, ptr %68, i32 0, i32 0
  %70 = call i32 %59(ptr noundef %61, i32 noundef %63, i64 noundef 8, ptr noundef %69)
  store i32 %70, ptr %14, align 4, !tbaa !34
  call void @llvm.lifetime.end.p0(i64 4, ptr %14) #10
  br label %71

71:                                               ; preds = %58
  %72 = load i32, ptr %7, align 4, !tbaa !34
  %73 = add nsw i32 %72, 1
  store i32 %73, ptr %7, align 4, !tbaa !34
  br label %16, !llvm.loop !64

74:                                               ; preds = %20
  ret void
}