; Function Attrs: mustprogress uwtable
define dso_local void @_ZN12b3LauncherCL10setBuffersEP14b3BufferInfoCLi(ptr noundef nonnull align 8 dereferenceable(112) %0, ptr noundef %1, i32 noundef %2) local_unnamed_addr #7 align 2 {
  %4 = alloca %struct.b3KernelArgData, align 16
  %5 = alloca i64, align 8
  %6 = alloca i64, align 8
  %7 = icmp sgt i32 %2, 0
  br i1 %7, label %.lr.ph, label %._crit_edge

.lr.ph:                                           ; preds = %3
  %8 = getelementptr inbounds nuw i8, ptr %0, i64 68
  %9 = getelementptr inbounds nuw i8, ptr %0, i64 24
  %10 = getelementptr inbounds nuw i8, ptr %4, i64 4
  %11 = getelementptr inbounds nuw i8, ptr %4, i64 16
  %12 = getelementptr inbounds nuw i8, ptr %4, i64 8
  %13 = getelementptr inbounds nuw i8, ptr %0, i64 32
  %14 = getelementptr inbounds nuw i8, ptr %0, i64 64
  %15 = getelementptr inbounds nuw i8, ptr %0, i64 16
  %wide.trip.count = zext nneg i32 %2 to i64
  br label %16

._crit_edge:                                      ; preds = %32, %3
  ret void

16:                                               ; preds = %.lr.ph, %32
  %indvars.iv = phi i64 [ 0, %.lr.ph ], [ %indvars.iv.next, %32 ]
  %17 = load i8, ptr %8, align 4, !tbaa !28, !range !35, !noundef !36
  %18 = trunc nuw i8 %17 to i1
  br i1 %18, label %19, label %32

19:                                               ; preds = %16
  call void @llvm.lifetime.start.p0(i64 32, ptr nonnull %4) #13
  %20 = load i32, ptr %9, align 8, !tbaa !23
  store i32 %20, ptr %10, align 4, !tbaa !45
  store i32 1, ptr %4, align 16, !tbaa !47
  %21 = getelementptr inbounds nuw %struct.b3BufferInfoCL, ptr %1, i64 %indvars.iv
  %22 = load ptr, ptr %21, align 8, !tbaa !55
  store ptr %22, ptr %11, align 16, !tbaa !48
  call void @llvm.lifetime.start.p0(i64 8, ptr nonnull %5) #13
  call void @llvm.lifetime.start.p0(i64 8, ptr nonnull %6) #13
  %23 = load ptr, ptr @__clewGetMemObjectInfo, align 8, !tbaa !49
  %24 = call i32 %23(ptr noundef %22, i32 noundef 4354, i64 noundef 8, ptr noundef nonnull %5, ptr noundef nonnull %6)
  %25 = load i64, ptr %5, align 8, !tbaa !50
  %26 = trunc i64 %25 to i32
  store i32 %26, ptr %12, align 8, !tbaa !52
  call void @_ZN20b3AlignedObjectArrayI15b3KernelArgDataE9push_backERKS0_(ptr noundef nonnull align 8 dereferenceable(25) %13, ptr noundef nonnull align 16 dereferenceable(32) %4)
  %27 = load i32, ptr %14, align 8, !tbaa !38
  %28 = add i32 %27, 32
  %29 = load i64, ptr %5, align 8, !tbaa !50
  %30 = trunc i64 %29 to i32
  %31 = add i32 %28, %30
  store i32 %31, ptr %14, align 8, !tbaa !38
  call void @llvm.lifetime.end.p0(i64 8, ptr nonnull %6) #13
  call void @llvm.lifetime.end.p0(i64 8, ptr nonnull %5) #13
  call void @llvm.lifetime.end.p0(i64 32, ptr nonnull %4) #13
  br label %32

32:                                               ; preds = %19, %16
  %33 = load ptr, ptr @__clewSetKernelArg, align 8, !tbaa !49
  %34 = load ptr, ptr %15, align 8, !tbaa !22
  %35 = load i32, ptr %9, align 8, !tbaa !23
  %36 = add nsw i32 %35, 1
  store i32 %36, ptr %9, align 8, !tbaa !23
  %37 = getelementptr inbounds nuw %struct.b3BufferInfoCL, ptr %1, i64 %indvars.iv
  %38 = call i32 %33(ptr noundef %34, i32 noundef %35, i64 noundef 8, ptr noundef %37)
  %indvars.iv.next = add nuw nsw i64 %indvars.iv, 1
  %exitcond.not = icmp eq i64 %indvars.iv.next, %wide.trip.count
  br i1 %exitcond.not, label %._crit_edge, label %16, !llvm.loop !57
}